target datalayout = "e-m:e-p270:32:32-p271:32:32-p272:64:64-i64:64-i128:128-f80:128-n8:16:32:64-S128"
target triple = "x86_64-pc-linux-gnu"

%"class.OpenImageIO::v3_1_0::Filesystem::IOProxy" = type { ptr, %"class.std::__cxx11::basic_string", i64, i32, %"class.std::__cxx11::basic_string" }
%"class.std::__cxx11::basic_string" = type { %"struct.std::__cxx11::basic_string<char>::_Alloc_hider", i64, %union.anon.0 }
%"struct.std::__cxx11::basic_string<char>::_Alloc_hider" = type { ptr }
%union.anon.0 = type { i64, [8 x i8] }

; Function Attrs: mustprogress nounwind uwtable
define linkonce_odr noundef i32 @_ZNK11OpenImageIO6v3_1_010Filesystem7IOProxy4modeEv(ptr noundef nonnull align 8 dereferenceable(88) %0) #7 comdat align 2 {
  %2 = alloca ptr, align 8
  store ptr %0, ptr %2, align 8, !tbaa !10
  %3 = load ptr, ptr %2, align 8
  %4 = getelementptr inbounds nuw %"class.OpenImageIO::v3_1_0::Filesystem::IOProxy", ptr %3, i32 0, i32 3
  %5 = load i32, ptr %4, align 8, !tbaa !16
  ret i32 %5
}

; Function Attrs: mustprogress uwtable
define hidden noundef zeroext i1 @_ZNK11OpenImageIO6v3_1_08webp_pvt9WebpInput10valid_fileEPNS0_10Filesystem7IOProxyE(ptr noundef nonnull align 8 dereferenceable(352) %0, ptr noundef %1) unnamed_addr #6 align 2 {
  %3 = alloca i1, align 1
  %4 = alloca ptr, align 8
  %5 = alloca ptr, align 8
  %6 = alloca [64 x i8], align 16
  %7 = alloca i64, align 8
  store ptr %0, ptr %4, align 8, !tbaa !8
  store ptr %1, ptr %5, align 8, !tbaa !10
  %8 = load ptr, ptr %5, align 8, !tbaa !10
  %9 = icmp ne ptr %8, null
  br i1 %9, label %10, label %14

10:                                               ; preds = %2
  %11 = load ptr, ptr %5, align 8, !tbaa !10
  %12 = call noundef i32 @_ZNK11OpenImageIO6v3_1_010Filesystem7IOProxy4modeEv(ptr noundef nonnull align 8 dereferenceable(88) %11)
  %13 = icmp ne i32 %12, 114
  br i1 %13, label %14, label %15

14:                                               ; preds = %10, %2
  store i1 false, ptr %3, align 1
  br label %26

15:                                               ; preds = %10
  call void @llvm.lifetime.start.p0(i64 64, ptr %6) #3
  call void @llvm.memset.p0.i64(ptr align 16 %6, i8 0, i64 64, i1 false)
  call void @llvm.lifetime.start.p0(i64 8, ptr %7) #3
  %16 = load ptr, ptr %5, align 8, !tbaa !10
  %17 = getelementptr inbounds [64 x i8], ptr %6, i64 0, i64 0
  %18 = load ptr, ptr %16, align 8, !tbaa !12
  %19 = getelementptr inbounds ptr, ptr %18, i64 9
  %20 = load ptr, ptr %19, align 8
  %21 = call noundef i64 %20(ptr noundef nonnull align 8 dereferenceable(88) %16, ptr noundef %17, i64 noundef 64, i64 noundef 0)
  store i64 %21, ptr %7, align 8, !tbaa !14
  %22 = getelementptr inbounds [64 x i8], ptr %6, i64 0, i64 0
  %23 = load i64, ptr %7, align 8, !tbaa !14
  %24 = call i32 @WebPGetInfo(ptr noundef %22, i64 noundef %23, ptr noundef null, ptr noundef null)
  %25 = icmp ne i32 %24, 0
  store i1 %25, ptr %3, align 1
  call void @llvm.lifetime.end.p0(i64 8, ptr %7) #3
  call void @llvm.lifetime.end.p0(i64 64, ptr %6) #3
  br label %26

26:                                               ; preds = %15, %14
  %27 = load i1, ptr %3, align 1
  ret i1 %27
}