; Function Attrs: mustprogress uwtable
define hidden noundef zeroext i1 @_ZNK11OpenImageIO6v3_1_08webp_pvt9WebpInput10valid_fileEPNS0_10Filesystem7IOProxyE(ptr nonnull readnone align 8 captures(none) %0, ptr noundef %1) unnamed_addr #5 align 2 {
  %3 = alloca [64 x i8], align 16
  %.not = icmp eq ptr %1, null
  br i1 %.not, label %14, label %4

4:                                                ; preds = %2
  %5 = getelementptr inbounds nuw i8, ptr %1, i64 48
  %6 = load i32, ptr %5, align 8, !tbaa !3
  %.not5 = icmp eq i32 %6, 114
  br i1 %.not5, label %7, label %14

7:                                                ; preds = %4
  call void @llvm.lifetime.start.p0(i64 64, ptr nonnull %3) #24
  call void @llvm.memset.p0.i64(ptr noundef nonnull align 16 dereferenceable(64) %3, i8 0, i64 64, i1 false)
  %8 = load ptr, ptr %1, align 8, !tbaa !13
  %9 = getelementptr inbounds nuw i8, ptr %8, i64 72
  %10 = load ptr, ptr %9, align 8
  %11 = call noundef i64 %10(ptr noundef nonnull align 8 dereferenceable(88) %1, ptr noundef nonnull %3, i64 noundef 64, i64 noundef 0)
  %12 = call i32 @WebPGetInfo(ptr noundef nonnull %3, i64 noundef %11, ptr noundef null, ptr noundef null)
  %13 = icmp ne i32 %12, 0
  call void @llvm.lifetime.end.p0(i64 64, ptr nonnull %3) #24
  br label %14

14:                                               ; preds = %2, %4, %7
  %.0 = phi i1 [ %13, %7 ], [ false, %4 ], [ false, %2 ]
  ret i1 %.0
}